; Function Attrs: mustprogress uwtable
define void @_ZNK5Ipopt14DenseGenMatrix14MultVectorImplEdRKNS_6VectorEdRS1_(ptr noundef nonnull readonly align 8 captures(none) dereferenceable(104) %0, double noundef %1, ptr noundef nonnull readonly align 8 captures(none) dereferenceable(205) %2, double noundef %3, ptr noundef nonnull align 8 dereferenceable(205) %4) unnamed_addr #2 align 2 {
  %6 = getelementptr inbounds nuw i8, ptr %0, i64 56
  %7 = load ptr, ptr %6, align 8, !tbaa !6
  %8 = getelementptr inbounds nuw i8, ptr %7, i64 12
  %9 = load i32, ptr %8, align 4, !tbaa !33
  %10 = getelementptr inbounds nuw i8, ptr %7, i64 16
  %11 = load i32, ptr %10, align 8, !tbaa !31
  %12 = getelementptr inbounds nuw i8, ptr %0, i64 80
  %13 = load ptr, ptr %12, align 8, !tbaa !34
  %14 = getelementptr inbounds nuw i8, ptr %2, i64 216
  %15 = load ptr, ptr %14, align 8, !tbaa !38
  %16 = getelementptr inbounds nuw i8, ptr %4, i64 232
  %17 = load i8, ptr %16, align 8, !tbaa !102, !range !103, !noundef !104
  %18 = trunc nuw i8 %17 to i1
  br i1 %18, label %19, label %24

19:                                               ; preds = %5
  %20 = getelementptr inbounds nuw i8, ptr %4, i64 233
  %21 = load i8, ptr %20, align 1, !tbaa !105, !range !103, !noundef !104
  %22 = trunc nuw i8 %21 to i1
  br i1 %22, label %23, label %24

23:                                               ; preds = %19
  tail call void @_ZN5Ipopt11DenseVector22set_values_from_scalarEv(ptr noundef nonnull align 8 dereferenceable(248) %4)
  br label %24

24:                                               ; preds = %23, %19, %5
  tail call void @_ZN5Ipopt12TaggedObject13ObjectChangedEv(ptr noundef nonnull align 8 dereferenceable(248) %4)
  store i8 1, ptr %16, align 8, !tbaa !102
  %25 = getelementptr inbounds nuw i8, ptr %4, i64 233
  store i8 0, ptr %25, align 1, !tbaa !105
  %26 = getelementptr inbounds nuw i8, ptr %4, i64 216
  %27 = load ptr, ptr %26, align 8, !tbaa !38
  %28 = icmp eq ptr %27, null
  br i1 %28, label %29, label %_ZN5Ipopt11DenseVector6ValuesEv.exit

29:                                               ; preds = %24
  %30 = getelementptr inbounds nuw i8, ptr %4, i64 208
  %31 = load ptr, ptr %30, align 8, !tbaa !106
  %32 = getelementptr inbounds nuw i8, ptr %31, i64 12
  %33 = load i32, ptr %32, align 4, !tbaa !107
  %34 = icmp sgt i32 %33, 0
  br i1 %34, label %35, label %_ZNK5Ipopt16DenseVectorSpace23AllocateInternalStorageEv.exit.i.i

35:                                               ; preds = %29
  %36 = zext nneg i32 %33 to i64
  %37 = shl nuw nsw i64 %36, 3
  %38 = tail call noalias noundef nonnull ptr @_Znam(i64 noundef %37) #21
  br label %_ZNK5Ipopt16DenseVectorSpace23AllocateInternalStorageEv.exit.i.i

_ZNK5Ipopt16DenseVectorSpace23AllocateInternalStorageEv.exit.i.i: ; preds = %35, %29
  %.0.i.i.i = phi ptr [ %38, %35 ], [ null, %29 ]
  store ptr %.0.i.i.i, ptr %26, align 8, !tbaa !38
  br label %_ZN5Ipopt11DenseVector6ValuesEv.exit

_ZN5Ipopt11DenseVector6ValuesEv.exit:             ; preds = %24, %_ZNK5Ipopt16DenseVectorSpace23AllocateInternalStorageEv.exit.i.i
  %39 = phi ptr [ %27, %24 ], [ %.0.i.i.i, %_ZNK5Ipopt16DenseVectorSpace23AllocateInternalStorageEv.exit.i.i ]
  tail call void @_ZN5Ipopt10IpBlasGemvEbiidPKdiS1_idPdi(i1 noundef zeroext false, i32 noundef %9, i32 noundef %11, double noundef %1, ptr noundef %13, i32 noundef %9, ptr noundef %15, i32 noundef 1, double noundef %3, ptr noundef %39, i32 noundef 1)
  ret void
}